target datalayout = "e-m:e-p270:32:32-p271:32:32-p272:64:64-i64:64-i128:128-f80:128-n8:16:32:64-S128"
target triple = "x86_64-pc-linux-gnu"

%struct.slurm_cred_ops_t = type { ptr, ptr, ptr, ptr, ptr, ptr }

@ops = internal global %struct.slurm_cred_ops_t zeroinitializer, align 8
@.str.44 = private unnamed_addr constant [26 x i8] c"%s: net_cred not provided\00", align 1
@__func__.extract_net_cred = private unnamed_addr constant [17 x i8] c"extract_net_cred\00", align 1

; Function Attrs: nounwind uwtable
define dso_local ptr @extract_net_cred(ptr noundef %0, i16 noundef zeroext %1) #0 {
  %3 = alloca ptr, align 8
  %4 = alloca ptr, align 8
  %5 = alloca i16, align 2
  store ptr %0, ptr %4, align 8
  store i16 %1, ptr %5, align 2
  %6 = load ptr, ptr %4, align 8
  %7 = icmp ne ptr %6, null
  br i1 %7, label %10, label %8

8:                                                ; preds = %2
  %9 = call i32 (ptr, ...) @error(ptr noundef @.str.44, ptr noundef @__func__.extract_net_cred)
  store ptr null, ptr %3, align 8
  br label %15

10:                                               ; preds = %2
  %11 = load ptr, ptr getelementptr inbounds nuw (%struct.slurm_cred_ops_t, ptr @ops, i32 0, i32 3), align 8
  %12 = load ptr, ptr %4, align 8
  %13 = load i16, ptr %5, align 2
  %14 = call ptr %11(ptr noundef %12, i16 noundef zeroext %13)
  store ptr %14, ptr %3, align 8
  br label %15

15:                                               ; preds = %10, %8
  %16 = load ptr, ptr %3, align 8
  ret ptr %16
}