; Function Attrs: nounwind uwtable
define dso_local ptr @extract_net_cred(ptr noundef %0, i16 noundef zeroext %1) local_unnamed_addr #0 {
  %.not = icmp eq ptr %0, null
  br i1 %.not, label %3, label %5

3:                                                ; preds = %2
  %4 = tail call i32 (ptr, ...) @error(ptr noundef nonnull @.str.44, ptr noundef nonnull @__func__.extract_net_cred) #11
  br label %8

5:                                                ; preds = %2
  %6 = load ptr, ptr getelementptr inbounds nuw (i8, ptr @ops, i64 24), align 8
  %7 = tail call ptr %6(ptr noundef nonnull %0, i16 noundef zeroext %1) #11
  br label %8

8:                                                ; preds = %5, %3
  %.0 = phi ptr [ %7, %5 ], [ null, %3 ]
  ret ptr %.0
}